target datalayout = "e-m:e-p270:32:32-p271:32:32-p272:64:64-i64:64-i128:128-f80:128-n8:16:32:64-S128"
target triple = "x86_64-pc-linux-gnu"

@.str.789 = private unnamed_addr constant [64 x i8] c"limit > 0 && \22u16_normalize must be called with positive limit\22\00", align 1
@.str.790 = private unnamed_addr constant [111 x i8] c"generated/home/dtcxzyw/WorkSpace/Projects/compilers/llvm-opt-benchmark/bench/clamav/clamav/libclamav/entconv.c\00", align 1
@__PRETTY_FUNCTION__.u16_normalize = private unnamed_addr constant [71 x i8] c"unsigned char *u16_normalize(uint16_t, unsigned char *, const ssize_t)\00", align 1
@.str.791 = private unnamed_addr constant [18 x i8] c"(uint8_t)u16 != 0\00", align 1
@tohex = internal global [16 x i8] c"0123456789abcdef", align 16

; Function Attrs: nounwind uwtable
define internal ptr @u16_normalize(i16 noundef zeroext %0, ptr noundef %1, i64 noundef %2) #0 {
  %4 = alloca ptr, align 8
  %5 = alloca i16, align 2
  %6 = alloca ptr, align 8
  %7 = alloca i64, align 8
  %8 = alloca i64, align 8
  store i16 %0, ptr %5, align 2
  store ptr %1, ptr %6, align 8
  store i64 %2, ptr %7, align 8
  %9 = load i64, ptr %7, align 8
  %10 = icmp sgt i64 %9, 0
  br i1 %10, label %11, label %13

11:                                               ; preds = %3
  br i1 true, label %12, label %13

12:                                               ; preds = %11
  br label %14

13:                                               ; preds = %11, %3
  call void @__assert_fail(ptr noundef @.str.789, ptr noundef @.str.790, i32 noundef 68, ptr noundef @__PRETTY_FUNCTION__.u16_normalize) #9
  unreachable

14:                                               ; preds = %12
  %15 = load i16, ptr %5, align 2
  %16 = icmp ne i16 %15, 0
  br i1 %16, label %19, label %17

17:                                               ; preds = %14
  %18 = load ptr, ptr %6, align 8
  store ptr %18, ptr %4, align 8
  br label %89

19:                                               ; preds = %14
  %20 = load i16, ptr %5, align 2
  %21 = zext i16 %20 to i32
  %22 = icmp slt i32 %21, 255
  br i1 %22, label %23, label %35

23:                                               ; preds = %19
  %24 = load i16, ptr %5, align 2
  %25 = trunc i16 %24 to i8
  %26 = zext i8 %25 to i32
  %27 = icmp ne i32 %26, 0
  br i1 %27, label %28, label %29

28:                                               ; preds = %23
  br label %30

29:                                               ; preds = %23
  call void @__assert_fail(ptr noundef @.str.791, ptr noundef @.str.790, i32 noundef 75, ptr noundef @__PRETTY_FUNCTION__.u16_normalize) #9
  unreachable

30:                                               ; preds = %28
  %31 = load i16, ptr %5, align 2
  %32 = trunc i16 %31 to i8
  %33 = load ptr, ptr %6, align 8
  %34 = getelementptr inbounds i8, ptr %33, i32 1
  store ptr %34, ptr %6, align 8
  store i8 %32, ptr %33, align 1
  br label %87

35:                                               ; preds = %19
  %36 = load i16, ptr %5, align 2
  %37 = zext i16 %36 to i32
  %38 = icmp eq i32 %37, 12290
  br i1 %38, label %47, label %39

39:                                               ; preds = %35
  %40 = load i16, ptr %5, align 2
  %41 = zext i16 %40 to i32
  %42 = icmp eq i32 %41, 65294
  br i1 %42, label %47, label %43

43:                                               ; preds = %39
  %44 = load i16, ptr %5, align 2
  %45 = zext i16 %44 to i32
  %46 = icmp eq i32 %45, 65106
  br i1 %46, label %47, label %50

47:                                               ; preds = %43, %39, %35
  %48 = load ptr, ptr %6, align 8
  %49 = getelementptr inbounds i8, ptr %48, i32 1
  store ptr %49, ptr %6, align 8
  store i8 46, ptr %48, align 1
  br label %86

50:                                               ; preds = %43
  %51 = load i64, ptr %7, align 8
  %52 = icmp sle i64 %51, 8
  br i1 %52, label %53, label %54

53:                                               ; preds = %50
  store ptr null, ptr %4, align 8
  br label %89

54:                                               ; preds = %50
  %55 = load ptr, ptr %6, align 8
  %56 = getelementptr inbounds i8, ptr %55, i64 0
  store i8 38, ptr %56, align 1
  %57 = load ptr, ptr %6, align 8
  %58 = getelementptr inbounds i8, ptr %57, i64 1
  store i8 35, ptr %58, align 1
  %59 = load ptr, ptr %6, align 8
  %60 = getelementptr inbounds i8, ptr %59, i64 2
  store i8 120, ptr %60, align 1
  %61 = load ptr, ptr %6, align 8
  %62 = getelementptr inbounds i8, ptr %61, i64 7
  store i8 59, ptr %62, align 1
  store i64 6, ptr %8, align 8
  br label %63

63:                                               ; preds = %80, %54
  %64 = load i64, ptr %8, align 8
  %65 = icmp uge i64 %64, 3
  br i1 %65, label %66, label %83

66:                                               ; preds = %63
  %67 = load i16, ptr %5, align 2
  %68 = zext i16 %67 to i32
  %69 = and i32 %68, 15
  %70 = sext i32 %69 to i64
  %71 = getelementptr inbounds [16 x i8], ptr @tohex, i64 0, i64 %70
  %72 = load i8, ptr %71, align 1
  %73 = load ptr, ptr %6, align 8
  %74 = load i64, ptr %8, align 8
  %75 = getelementptr inbounds i8, ptr %73, i64 %74
  store i8 %72, ptr %75, align 1
  %76 = load i16, ptr %5, align 2
  %77 = zext i16 %76 to i32
  %78 = ashr i32 %77, 4
  %79 = trunc i32 %78 to i16
  store i16 %79, ptr %5, align 2
  br label %80

80:                                               ; preds = %66
  %81 = load i64, ptr %8, align 8
  %82 = add i64 %81, -1
  store i64 %82, ptr %8, align 8
  br label %63

83:                                               ; preds = %63
  %84 = load ptr, ptr %6, align 8
  %85 = getelementptr inbounds i8, ptr %84, i64 8
  store ptr %85, ptr %6, align 8
  br label %86

86:                                               ; preds = %83, %47
  br label %87

87:                                               ; preds = %86, %30
  %88 = load ptr, ptr %6, align 8
  store ptr %88, ptr %4, align 8
  br label %89

89:                                               ; preds = %87, %53, %17
  %90 = load ptr, ptr %4, align 8
  ret ptr %90
}

; Function Attrs: nounwind uwtable
define ptr @u16_normalize_tobuffer(i16 noundef zeroext %0, ptr noundef %1, i64 noundef %2) #0 {
  %4 = alloca ptr, align 8
  %5 = alloca i16, align 2
  %6 = alloca ptr, align 8
  %7 = alloca i64, align 8
  %8 = alloca ptr, align 8
  store i16 %0, ptr %5, align 2
  store ptr %1, ptr %6, align 8
  store i64 %2, ptr %7, align 8
  %9 = load i16, ptr %5, align 2
  %10 = load ptr, ptr %6, align 8
  %11 = load i64, ptr %7, align 8
  %12 = sub i64 %11, 1
  %13 = call ptr @u16_normalize(i16 noundef zeroext %9, ptr noundef %10, i64 noundef %12)
  store ptr %13, ptr %8, align 8
  %14 = load ptr, ptr %8, align 8
  %15 = icmp ne ptr %14, null
  br i1 %15, label %16, label %20

16:                                               ; preds = %3
  %17 = load ptr, ptr %8, align 8
  %18 = getelementptr inbounds i8, ptr %17, i32 1
  store ptr %18, ptr %8, align 8
  store i8 0, ptr %17, align 1
  %19 = load ptr, ptr %8, align 8
  store ptr %19, ptr %4, align 8
  br label %21

20:                                               ; preds = %3
  store ptr null, ptr %4, align 8
  br label %21

21:                                               ; preds = %20, %16
  %22 = load ptr, ptr %4, align 8
  ret ptr %22
}