; Function Attrs: nounwind uwtable
define ptr @u16_normalize_tobuffer(i16 noundef zeroext %0, ptr noundef writeonly %1, i64 noundef %2) local_unnamed_addr #0 {
  %4 = add i64 %2, -1
  %5 = icmp sgt i64 %4, 0
  br i1 %5, label %7, label %6

6:                                                ; preds = %3
  tail call void @__assert_fail(ptr noundef nonnull @.str.789, ptr noundef nonnull @.str.790, i32 noundef 68, ptr noundef nonnull @__PRETTY_FUNCTION__.u16_normalize) #14
  unreachable

7:                                                ; preds = %3
  %.not.i = icmp eq i16 %0, 0
  br i1 %.not.i, label %u16_normalize.exit, label %8

8:                                                ; preds = %7
  %9 = icmp ult i16 %0, 255
  br i1 %9, label %10, label %13

10:                                               ; preds = %8
  %11 = trunc nuw i16 %0 to i8
  %12 = getelementptr inbounds i8, ptr %1, i64 1
  store i8 %11, ptr %1, align 1
  br label %u16_normalize.exit.thread

13:                                               ; preds = %8
  switch i16 %0, label %16 [
    i16 -242, label %14
    i16 -430, label %14
    i16 12290, label %14
  ]

14:                                               ; preds = %13, %13, %13
  %15 = getelementptr inbounds i8, ptr %1, i64 1
  store i8 46, ptr %1, align 1
  br label %u16_normalize.exit.thread

16:                                               ; preds = %13
  %17 = icmp ult i64 %4, 9
  br i1 %17, label %u16_normalize.exit.thread10, label %18

18:                                               ; preds = %16
  store i8 38, ptr %1, align 1
  %19 = getelementptr inbounds i8, ptr %1, i64 1
  store i8 35, ptr %19, align 1
  %20 = getelementptr inbounds i8, ptr %1, i64 2
  store i8 120, ptr %20, align 1
  %21 = getelementptr inbounds i8, ptr %1, i64 7
  store i8 59, ptr %21, align 1
  br label %22

22:                                               ; preds = %22, %18
  %.036.i = phi i64 [ 6, %18 ], [ %29, %22 ]
  %.03135.i = phi i16 [ %0, %18 ], [ %28, %22 ]
  %23 = and i16 %.03135.i, 15
  %24 = zext nneg i16 %23 to i64
  %25 = getelementptr inbounds [16 x i8], ptr @tohex, i64 0, i64 %24
  %26 = load i8, ptr %25, align 1
  %27 = getelementptr inbounds i8, ptr %1, i64 %.036.i
  store i8 %26, ptr %27, align 1
  %28 = lshr i16 %.03135.i, 4
  %29 = add nsw i64 %.036.i, -1
  %30 = icmp ugt i64 %29, 2
  br i1 %30, label %22, label %31

31:                                               ; preds = %22
  %32 = getelementptr inbounds i8, ptr %1, i64 8
  br label %u16_normalize.exit.thread

u16_normalize.exit:                               ; preds = %7
  %.not = icmp eq ptr %1, null
  br i1 %.not, label %u16_normalize.exit.thread10, label %u16_normalize.exit.thread

u16_normalize.exit.thread:                        ; preds = %31, %14, %10, %u16_normalize.exit
  %.029.i9 = phi ptr [ %1, %u16_normalize.exit ], [ %32, %31 ], [ %15, %14 ], [ %12, %10 ]
  %33 = getelementptr inbounds i8, ptr %.029.i9, i64 1
  store i8 0, ptr %.029.i9, align 1
  br label %u16_normalize.exit.thread10

u16_normalize.exit.thread10:                      ; preds = %16, %u16_normalize.exit, %u16_normalize.exit.thread
  %.0 = phi ptr [ %33, %u16_normalize.exit.thread ], [ null, %u16_normalize.exit ], [ null, %16 ]
  ret ptr %.0
}